target datalayout = "e-m:e-p270:32:32-p271:32:32-p272:64:64-i64:64-i128:128-f80:128-n8:16:32:64-S128"
target triple = "x86_64-pc-linux-gnu"

%struct.settings = type { i64, i32, i32, i32, ptr, i32, i32, i32, ptr, ptr, i32, double, i32, i32, i32, i8, i32, i32, i8, i32, i32, i32, i32, i32, i32, i8, i8, i8, i8, i8, i8, i8, i32, i32, double, double, i32, i32, i8, i32, i8, i8, ptr, i32, i32, i32, i32, double, double, i32, i8, i32, i32, i32, i32, i32, i8, i8, i8, ptr, i32, i32, i32, i32, i32, i32, i32, i32, i32, i32, double, i8, i32, i32, ptr, i32 }
%struct.conn = type { ptr, i32, i8, i8, i8, i8, i8, i8, i8, i8, ptr, i32, i32, i32, %struct.event, i16, i16, ptr, ptr, i32, i32, ptr, ptr, ptr, i32, ptr, i32, i32, i32, i32, i32, i32, i32, %struct.sockaddr_in6, i32, i8, %struct.anon.8, %union.protocol_binary_request_header, i64, i64, i16, i32, i32, ptr, ptr, ptr, ptr, ptr, ptr }
%struct.event = type { %struct.event_callback, %union.anon.0, i32, ptr, %union.anon.2, i16, i16, %struct.timeval }
%struct.event_callback = type { %struct.anon, i16, i8, i8, %union.anon, ptr }
%struct.anon = type { ptr, ptr }
%union.anon = type { ptr }
%union.anon.0 = type { %struct.anon.1 }
%struct.anon.1 = type { ptr, ptr }
%union.anon.2 = type { %struct.anon.3 }
%struct.anon.3 = type { %struct.anon.4, %struct.timeval }
%struct.anon.4 = type { ptr, ptr }
%struct.timeval = type { i64, i64 }
%struct.sockaddr_in6 = type { i16, i16, i32, %struct.in6_addr, i32 }
%struct.in6_addr = type { %union.anon.7 }
%union.anon.7 = type { [4 x i32] }
%struct.anon.8 = type { ptr, i64, i64 }
%union.protocol_binary_request_header = type { %struct.anon.9 }
%struct.anon.9 = type { i8, i8, i16, i8, i8, i16, i32, i32, i64 }
%struct.token_s = type { ptr, i64 }

@settings = external global %struct.settings, align 8
@.str.15 = private unnamed_addr constant [6 x i8] c"ERROR\00", align 1
@.str.85 = private unnamed_addr constant [8 x i8] c"noreply\00", align 1
@.str.152 = private unnamed_addr constant [40 x i8] c"CLIENT_ERROR watch commands not allowed\00", align 1
@.str.153 = private unnamed_addr constant [50 x i8] c"ERROR cannot pipeline other commands before watch\00", align 1
@.str.154 = private unnamed_addr constant [8 x i8] c"rawcmds\00", align 1
@.str.155 = private unnamed_addr constant [10 x i8] c"evictions\00", align 1
@.str.156 = private unnamed_addr constant [9 x i8] c"fetchers\00", align 1
@.str.157 = private unnamed_addr constant [10 x i8] c"mutations\00", align 1
@.str.158 = private unnamed_addr constant [10 x i8] c"sysevents\00", align 1
@.str.159 = private unnamed_addr constant [11 x i8] c"connevents\00", align 1
@.str.160 = private unnamed_addr constant [10 x i8] c"proxyreqs\00", align 1
@.str.161 = private unnamed_addr constant [12 x i8] c"proxyevents\00", align 1
@.str.162 = private unnamed_addr constant [10 x i8] c"proxyuser\00", align 1
@.str.163 = private unnamed_addr constant [10 x i8] c"deletions\00", align 1
@.str.164 = private unnamed_addr constant [43 x i8] c"WATCHER_TOO_MANY log watcher limit reached\00", align 1
@.str.165 = private unnamed_addr constant [41 x i8] c"WATCHER_FAILED failed to add log watcher\00", align 1

; Function Attrs: inlinehint nounwind uwtable
define internal zeroext i1 @set_noreply_maybe(ptr noundef %0, ptr noundef %1, i64 noundef %2) #5 {
  %4 = alloca ptr, align 8
  %5 = alloca ptr, align 8
  %6 = alloca i64, align 8
  %7 = alloca i32, align 4
  store ptr %0, ptr %4, align 8, !tbaa !4
  store ptr %1, ptr %5, align 8, !tbaa !77
  store i64 %2, ptr %6, align 8, !tbaa !44
  call void @llvm.lifetime.start.p0(i64 4, ptr %7) #8
  %8 = load i64, ptr %6, align 8, !tbaa !44
  %9 = sub i64 %8, 2
  %10 = trunc i64 %9 to i32
  store i32 %10, ptr %7, align 4, !tbaa !30
  %11 = load ptr, ptr %5, align 8, !tbaa !77
  %12 = load i32, ptr %7, align 4, !tbaa !30
  %13 = sext i32 %12 to i64
  %14 = getelementptr inbounds %struct.token_s, ptr %11, i64 %13
  %15 = getelementptr inbounds nuw %struct.token_s, ptr %14, i32 0, i32 0
  %16 = load ptr, ptr %15, align 8, !tbaa !70
  %17 = icmp ne ptr %16, null
  br i1 %17, label %18, label %30

18:                                               ; preds = %3
  %19 = load ptr, ptr %5, align 8, !tbaa !77
  %20 = load i32, ptr %7, align 4, !tbaa !30
  %21 = sext i32 %20 to i64
  %22 = getelementptr inbounds %struct.token_s, ptr %19, i64 %21
  %23 = getelementptr inbounds nuw %struct.token_s, ptr %22, i32 0, i32 0
  %24 = load ptr, ptr %23, align 8, !tbaa !70
  %25 = call i32 @strcmp(ptr noundef %24, ptr noundef @.str.85) #9
  %26 = icmp eq i32 %25, 0
  br i1 %26, label %27, label %30

27:                                               ; preds = %18
  %28 = load ptr, ptr %4, align 8, !tbaa !4
  %29 = getelementptr inbounds nuw %struct.conn, ptr %28, i32 0, i32 35
  store i8 1, ptr %29, align 4, !tbaa !43
  br label %30

30:                                               ; preds = %27, %18, %3
  %31 = load ptr, ptr %4, align 8, !tbaa !4
  %32 = getelementptr inbounds nuw %struct.conn, ptr %31, i32 0, i32 35
  %33 = load i8, ptr %32, align 4, !tbaa !43, !range !40, !noundef !41
  %34 = trunc i8 %33 to i1
  call void @llvm.lifetime.end.p0(i64 4, ptr %7) #8
  ret i1 %34
}

; Function Attrs: nounwind uwtable
define internal void @process_watch_command(ptr noundef %0, ptr noundef %1, i64 noundef %2) #0 {
  %4 = alloca ptr, align 8
  %5 = alloca ptr, align 8
  %6 = alloca i64, align 8
  %7 = alloca i16, align 2
  %8 = alloca i32, align 4
  %9 = alloca i32, align 4
  store ptr %0, ptr %4, align 8, !tbaa !4
  store ptr %1, ptr %5, align 8, !tbaa !77
  store i64 %2, ptr %6, align 8, !tbaa !44
  call void @llvm.lifetime.start.p0(i64 2, ptr %7) #8
  store i16 0, ptr %7, align 2, !tbaa !36
  call void @llvm.lifetime.start.p0(i64 4, ptr %8) #8
  %10 = load ptr, ptr %4, align 8, !tbaa !4
  %11 = load ptr, ptr %5, align 8, !tbaa !77
  %12 = load i64, ptr %6, align 8, !tbaa !44
  %13 = call zeroext i1 @set_noreply_maybe(ptr noundef %10, ptr noundef %11, i64 noundef %12)
  %14 = load i8, ptr getelementptr inbounds nuw (%struct.settings, ptr @settings, i32 0, i32 57), align 1, !tbaa !146, !range !40, !noundef !41
  %15 = trunc i8 %14 to i1
  br i1 %15, label %18, label %16

16:                                               ; preds = %3
  %17 = load ptr, ptr %4, align 8, !tbaa !4
  call void @out_string(ptr noundef %17, ptr noundef @.str.152)
  store i32 1, ptr %9, align 4
  br label %211

18:                                               ; preds = %3
  %19 = load ptr, ptr %4, align 8, !tbaa !4
  %20 = call zeroext i1 @resp_has_stack(ptr noundef %19)
  br i1 %20, label %21, label %23

21:                                               ; preds = %18
  %22 = load ptr, ptr %4, align 8, !tbaa !4
  call void @out_string(ptr noundef %22, ptr noundef @.str.153)
  store i32 1, ptr %9, align 4
  br label %211

23:                                               ; preds = %18
  %24 = load i64, ptr %6, align 8, !tbaa !44
  %25 = icmp ugt i64 %24, 2
  br i1 %25, label %26, label %189

26:                                               ; preds = %23
  store i32 1, ptr %8, align 4, !tbaa !30
  br label %27

27:                                               ; preds = %185, %26
  %28 = load i32, ptr %8, align 4, !tbaa !30
  %29 = sext i32 %28 to i64
  %30 = load i64, ptr %6, align 8, !tbaa !44
  %31 = sub i64 %30, 1
  %32 = icmp ult i64 %29, %31
  br i1 %32, label %33, label %188

33:                                               ; preds = %27
  %34 = load ptr, ptr %5, align 8, !tbaa !77
  %35 = load i32, ptr %8, align 4, !tbaa !30
  %36 = sext i32 %35 to i64
  %37 = getelementptr inbounds %struct.token_s, ptr %34, i64 %36
  %38 = getelementptr inbounds nuw %struct.token_s, ptr %37, i32 0, i32 0
  %39 = load ptr, ptr %38, align 8, !tbaa !70
  %40 = call i32 @strcmp(ptr noundef %39, ptr noundef @.str.154) #9
  %41 = icmp eq i32 %40, 0
  br i1 %41, label %42, label %47

42:                                               ; preds = %33
  %43 = load i16, ptr %7, align 2, !tbaa !36
  %44 = zext i16 %43 to i32
  %45 = or i32 %44, 512
  %46 = trunc i32 %45 to i16
  store i16 %46, ptr %7, align 2, !tbaa !36
  br label %184

47:                                               ; preds = %33
  %48 = load ptr, ptr %5, align 8, !tbaa !77
  %49 = load i32, ptr %8, align 4, !tbaa !30
  %50 = sext i32 %49 to i64
  %51 = getelementptr inbounds %struct.token_s, ptr %48, i64 %50
  %52 = getelementptr inbounds nuw %struct.token_s, ptr %51, i32 0, i32 0
  %53 = load ptr, ptr %52, align 8, !tbaa !70
  %54 = call i32 @strcmp(ptr noundef %53, ptr noundef @.str.155) #9
  %55 = icmp eq i32 %54, 0
  br i1 %55, label %56, label %61

56:                                               ; preds = %47
  %57 = load i16, ptr %7, align 2, !tbaa !36
  %58 = zext i16 %57 to i32
  %59 = or i32 %58, 64
  %60 = trunc i32 %59 to i16
  store i16 %60, ptr %7, align 2, !tbaa !36
  br label %183

61:                                               ; preds = %47
  %62 = load ptr, ptr %5, align 8, !tbaa !77
  %63 = load i32, ptr %8, align 4, !tbaa !30
  %64 = sext i32 %63 to i64
  %65 = getelementptr inbounds %struct.token_s, ptr %62, i64 %64
  %66 = getelementptr inbounds nuw %struct.token_s, ptr %65, i32 0, i32 0
  %67 = load ptr, ptr %66, align 8, !tbaa !70
  %68 = call i32 @strcmp(ptr noundef %67, ptr noundef @.str.156) #9
  %69 = icmp eq i32 %68, 0
  br i1 %69, label %70, label %75

70:                                               ; preds = %61
  %71 = load i16, ptr %7, align 2, !tbaa !36
  %72 = zext i16 %71 to i32
  %73 = or i32 %72, 4
  %74 = trunc i32 %73 to i16
  store i16 %74, ptr %7, align 2, !tbaa !36
  br label %182

75:                                               ; preds = %61
  %76 = load ptr, ptr %5, align 8, !tbaa !77
  %77 = load i32, ptr %8, align 4, !tbaa !30
  %78 = sext i32 %77 to i64
  %79 = getelementptr inbounds %struct.token_s, ptr %76, i64 %78
  %80 = getelementptr inbounds nuw %struct.token_s, ptr %79, i32 0, i32 0
  %81 = load ptr, ptr %80, align 8, !tbaa !70
  %82 = call i32 @strcmp(ptr noundef %81, ptr noundef @.str.157) #9
  %83 = icmp eq i32 %82, 0
  br i1 %83, label %84, label %89

84:                                               ; preds = %75
  %85 = load i16, ptr %7, align 2, !tbaa !36
  %86 = zext i16 %85 to i32
  %87 = or i32 %86, 8
  %88 = trunc i32 %87 to i16
  store i16 %88, ptr %7, align 2, !tbaa !36
  br label %181

89:                                               ; preds = %75
  %90 = load ptr, ptr %5, align 8, !tbaa !77
  %91 = load i32, ptr %8, align 4, !tbaa !30
  %92 = sext i32 %91 to i64
  %93 = getelementptr inbounds %struct.token_s, ptr %90, i64 %92
  %94 = getelementptr inbounds nuw %struct.token_s, ptr %93, i32 0, i32 0
  %95 = load ptr, ptr %94, align 8, !tbaa !70
  %96 = call i32 @strcmp(ptr noundef %95, ptr noundef @.str.158) #9
  %97 = icmp eq i32 %96, 0
  br i1 %97, label %98, label %103

98:                                               ; preds = %89
  %99 = load i16, ptr %7, align 2, !tbaa !36
  %100 = zext i16 %99 to i32
  %101 = or i32 %100, 2
  %102 = trunc i32 %101 to i16
  store i16 %102, ptr %7, align 2, !tbaa !36
  br label %180

103:                                              ; preds = %89
  %104 = load ptr, ptr %5, align 8, !tbaa !77
  %105 = load i32, ptr %8, align 4, !tbaa !30
  %106 = sext i32 %105 to i64
  %107 = getelementptr inbounds %struct.token_s, ptr %104, i64 %106
  %108 = getelementptr inbounds nuw %struct.token_s, ptr %107, i32 0, i32 0
  %109 = load ptr, ptr %108, align 8, !tbaa !70
  %110 = call i32 @strcmp(ptr noundef %109, ptr noundef @.str.159) #9
  %111 = icmp eq i32 %110, 0
  br i1 %111, label %112, label %117

112:                                              ; preds = %103
  %113 = load i16, ptr %7, align 2, !tbaa !36
  %114 = zext i16 %113 to i32
  %115 = or i32 %114, 32
  %116 = trunc i32 %115 to i16
  store i16 %116, ptr %7, align 2, !tbaa !36
  br label %179

117:                                              ; preds = %103
  %118 = load ptr, ptr %5, align 8, !tbaa !77
  %119 = load i32, ptr %8, align 4, !tbaa !30
  %120 = sext i32 %119 to i64
  %121 = getelementptr inbounds %struct.token_s, ptr %118, i64 %120
  %122 = getelementptr inbounds nuw %struct.token_s, ptr %121, i32 0, i32 0
  %123 = load ptr, ptr %122, align 8, !tbaa !70
  %124 = call i32 @strcmp(ptr noundef %123, ptr noundef @.str.160) #9
  %125 = icmp eq i32 %124, 0
  br i1 %125, label %126, label %131

126:                                              ; preds = %117
  %127 = load i16, ptr %7, align 2, !tbaa !36
  %128 = zext i16 %127 to i32
  %129 = or i32 %128, 1024
  %130 = trunc i32 %129 to i16
  store i16 %130, ptr %7, align 2, !tbaa !36
  br label %178

131:                                              ; preds = %117
  %132 = load ptr, ptr %5, align 8, !tbaa !77
  %133 = load i32, ptr %8, align 4, !tbaa !30
  %134 = sext i32 %133 to i64
  %135 = getelementptr inbounds %struct.token_s, ptr %132, i64 %134
  %136 = getelementptr inbounds nuw %struct.token_s, ptr %135, i32 0, i32 0
  %137 = load ptr, ptr %136, align 8, !tbaa !70
  %138 = call i32 @strcmp(ptr noundef %137, ptr noundef @.str.161) #9
  %139 = icmp eq i32 %138, 0
  br i1 %139, label %140, label %145

140:                                              ; preds = %131
  %141 = load i16, ptr %7, align 2, !tbaa !36
  %142 = zext i16 %141 to i32
  %143 = or i32 %142, 2048
  %144 = trunc i32 %143 to i16
  store i16 %144, ptr %7, align 2, !tbaa !36
  br label %177

145:                                              ; preds = %131
  %146 = load ptr, ptr %5, align 8, !tbaa !77
  %147 = load i32, ptr %8, align 4, !tbaa !30
  %148 = sext i32 %147 to i64
  %149 = getelementptr inbounds %struct.token_s, ptr %146, i64 %148
  %150 = getelementptr inbounds nuw %struct.token_s, ptr %149, i32 0, i32 0
  %151 = load ptr, ptr %150, align 8, !tbaa !70
  %152 = call i32 @strcmp(ptr noundef %151, ptr noundef @.str.162) #9
  %153 = icmp eq i32 %152, 0
  br i1 %153, label %154, label %159

154:                                              ; preds = %145
  %155 = load i16, ptr %7, align 2, !tbaa !36
  %156 = zext i16 %155 to i32
  %157 = or i32 %156, 4096
  %158 = trunc i32 %157 to i16
  store i16 %158, ptr %7, align 2, !tbaa !36
  br label %176

159:                                              ; preds = %145
  %160 = load ptr, ptr %5, align 8, !tbaa !77
  %161 = load i32, ptr %8, align 4, !tbaa !30
  %162 = sext i32 %161 to i64
  %163 = getelementptr inbounds %struct.token_s, ptr %160, i64 %162
  %164 = getelementptr inbounds nuw %struct.token_s, ptr %163, i32 0, i32 0
  %165 = load ptr, ptr %164, align 8, !tbaa !70
  %166 = call i32 @strcmp(ptr noundef %165, ptr noundef @.str.163) #9
  %167 = icmp eq i32 %166, 0
  br i1 %167, label %168, label %173

168:                                              ; preds = %159
  %169 = load i16, ptr %7, align 2, !tbaa !36
  %170 = zext i16 %169 to i32
  %171 = or i32 %170, 8192
  %172 = trunc i32 %171 to i16
  store i16 %172, ptr %7, align 2, !tbaa !36
  br label %175

173:                                              ; preds = %159
  %174 = load ptr, ptr %4, align 8, !tbaa !4
  call void @out_string(ptr noundef %174, ptr noundef @.str.15)
  store i32 1, ptr %9, align 4
  br label %211

175:                                              ; preds = %168
  br label %176

176:                                              ; preds = %175, %154
  br label %177

177:                                              ; preds = %176, %140
  br label %178

178:                                              ; preds = %177, %126
  br label %179

179:                                              ; preds = %178, %112
  br label %180

180:                                              ; preds = %179, %98
  br label %181

181:                                              ; preds = %180, %84
  br label %182

182:                                              ; preds = %181, %70
  br label %183

183:                                              ; preds = %182, %56
  br label %184

184:                                              ; preds = %183, %42
  br label %185

185:                                              ; preds = %184
  %186 = load i32, ptr %8, align 4, !tbaa !30
  %187 = add nsw i32 %186, 1
  store i32 %187, ptr %8, align 4, !tbaa !30
  br label %27, !llvm.loop !147

188:                                              ; preds = %27
  br label %194

189:                                              ; preds = %23
  %190 = load i16, ptr %7, align 2, !tbaa !36
  %191 = zext i16 %190 to i32
  %192 = or i32 %191, 4
  %193 = trunc i32 %192 to i16
  store i16 %193, ptr %7, align 2, !tbaa !36
  br label %194

194:                                              ; preds = %189, %188
  %195 = load ptr, ptr %4, align 8, !tbaa !4
  %196 = load ptr, ptr %4, align 8, !tbaa !4
  %197 = getelementptr inbounds nuw %struct.conn, ptr %196, i32 0, i32 1
  %198 = load i32, ptr %197, align 8, !tbaa !45
  %199 = load i16, ptr %7, align 2, !tbaa !36
  %200 = call i32 @logger_add_watcher(ptr noundef %195, i32 noundef %198, i16 noundef zeroext %199)
  switch i32 %200, label %210 [
    i32 0, label %201
    i32 2, label %203
    i32 1, label %205
  ]

201:                                              ; preds = %194
  %202 = load ptr, ptr %4, align 8, !tbaa !4
  call void @out_string(ptr noundef %202, ptr noundef @.str.164)
  br label %210

203:                                              ; preds = %194
  %204 = load ptr, ptr %4, align 8, !tbaa !4
  call void @out_string(ptr noundef %204, ptr noundef @.str.165)
  br label %210

205:                                              ; preds = %194
  %206 = load ptr, ptr %4, align 8, !tbaa !4
  call void @conn_set_state(ptr noundef %206, i32 noundef 11)
  %207 = load ptr, ptr %4, align 8, !tbaa !4
  %208 = getelementptr inbounds nuw %struct.conn, ptr %207, i32 0, i32 14
  %209 = call i32 @event_del(ptr noundef %208)
  br label %210

210:                                              ; preds = %194, %205, %203, %201
  store i32 0, ptr %9, align 4
  br label %211

211:                                              ; preds = %210, %173, %21, %16
  call void @llvm.lifetime.end.p0(i64 4, ptr %8) #8
  call void @llvm.lifetime.end.p0(i64 2, ptr %7) #8
  %212 = load i32, ptr %9, align 4
  switch i32 %212, label %214 [
    i32 0, label %213
    i32 1, label %213
  ]

213:                                              ; preds = %211, %211
  ret void

214:                                              ; preds = %211
  unreachable
}