; Function Attrs: nounwind uwtable
define internal fastcc void @process_watch_command(ptr noundef %0, ptr noundef nonnull readonly captures(none) %1, i64 noundef range(i64 2, 0) %2) unnamed_addr #0 {
  %4 = shl i64 %2, 32
  %sext.i = add i64 %4, -8589934592
  %5 = ashr exact i64 %sext.i, 28
  %6 = getelementptr inbounds i8, ptr %1, i64 %5
  %7 = load ptr, ptr %6, align 8, !tbaa !66
  %.not.i = icmp eq ptr %7, null
  br i1 %.not.i, label %set_noreply_maybe.exit, label %8

8:                                                ; preds = %3
  %9 = tail call i32 @strcmp(ptr noundef nonnull dereferenceable(1) %7, ptr noundef nonnull dereferenceable(8) @.str.85) #14
  %10 = icmp eq i32 %9, 0
  br i1 %10, label %11, label %set_noreply_maybe.exit

11:                                               ; preds = %8
  %12 = getelementptr inbounds nuw i8, ptr %0, i64 308
  store i8 1, ptr %12, align 4, !tbaa !39
  br label %set_noreply_maybe.exit

set_noreply_maybe.exit:                           ; preds = %3, %8, %11
  %13 = load i8, ptr getelementptr inbounds nuw (i8, ptr @settings, i64 261), align 1, !tbaa !140, !range !37, !noundef !38
  %14 = trunc nuw i8 %13 to i1
  br i1 %14, label %16, label %15

15:                                               ; preds = %set_noreply_maybe.exit
  tail call void @out_string(ptr noundef nonnull %0, ptr noundef nonnull @.str.152) #13
  br label %64

16:                                               ; preds = %set_noreply_maybe.exit
  %17 = tail call zeroext i1 @resp_has_stack(ptr noundef nonnull %0) #13
  br i1 %17, label %18, label %19

18:                                               ; preds = %16
  tail call void @out_string(ptr noundef nonnull %0, ptr noundef nonnull @.str.153) #13
  br label %64

19:                                               ; preds = %16
  %20 = icmp ugt i64 %2, 2
  br i1 %20, label %.lr.ph.preheader, label %.loopexit

.lr.ph.preheader:                                 ; preds = %19
  %21 = add i64 %2, -2
  br label %.lr.ph

.lr.ph:                                           ; preds = %.lr.ph.preheader, %54
  %indvars.iv = phi i64 [ %indvars.iv.next, %54 ], [ 1, %.lr.ph.preheader ]
  %.04852 = phi i16 [ %55, %54 ], [ 0, %.lr.ph.preheader ]
  %22 = getelementptr inbounds nuw %struct.token_s, ptr %1, i64 %indvars.iv
  %23 = load ptr, ptr %22, align 8, !tbaa !66
  %24 = tail call i32 @strcmp(ptr noundef nonnull dereferenceable(1) %23, ptr noundef nonnull dereferenceable(8) @.str.154) #14
  %25 = icmp eq i32 %24, 0
  br i1 %25, label %54, label %26

26:                                               ; preds = %.lr.ph
  %27 = tail call i32 @strcmp(ptr noundef nonnull dereferenceable(1) %23, ptr noundef nonnull dereferenceable(10) @.str.155) #14
  %28 = icmp eq i32 %27, 0
  br i1 %28, label %54, label %29

29:                                               ; preds = %26
  %30 = tail call i32 @strcmp(ptr noundef nonnull dereferenceable(1) %23, ptr noundef nonnull dereferenceable(9) @.str.156) #14
  %31 = icmp eq i32 %30, 0
  br i1 %31, label %54, label %32

32:                                               ; preds = %29
  %33 = tail call i32 @strcmp(ptr noundef nonnull dereferenceable(1) %23, ptr noundef nonnull dereferenceable(10) @.str.157) #14
  %34 = icmp eq i32 %33, 0
  br i1 %34, label %54, label %35

35:                                               ; preds = %32
  %36 = tail call i32 @strcmp(ptr noundef nonnull dereferenceable(1) %23, ptr noundef nonnull dereferenceable(10) @.str.158) #14
  %37 = icmp eq i32 %36, 0
  br i1 %37, label %54, label %38

38:                                               ; preds = %35
  %39 = tail call i32 @strcmp(ptr noundef nonnull dereferenceable(1) %23, ptr noundef nonnull dereferenceable(11) @.str.159) #14
  %40 = icmp eq i32 %39, 0
  br i1 %40, label %54, label %41

41:                                               ; preds = %38
  %42 = tail call i32 @strcmp(ptr noundef nonnull dereferenceable(1) %23, ptr noundef nonnull dereferenceable(10) @.str.160) #14
  %43 = icmp eq i32 %42, 0
  br i1 %43, label %54, label %44

44:                                               ; preds = %41
  %45 = tail call i32 @strcmp(ptr noundef nonnull dereferenceable(1) %23, ptr noundef nonnull dereferenceable(12) @.str.161) #14
  %46 = icmp eq i32 %45, 0
  br i1 %46, label %54, label %47

47:                                               ; preds = %44
  %48 = tail call i32 @strcmp(ptr noundef nonnull dereferenceable(1) %23, ptr noundef nonnull dereferenceable(10) @.str.162) #14
  %49 = icmp eq i32 %48, 0
  br i1 %49, label %54, label %50

50:                                               ; preds = %47
  %51 = tail call i32 @strcmp(ptr noundef nonnull dereferenceable(1) %23, ptr noundef nonnull dereferenceable(10) @.str.163) #14
  %52 = icmp eq i32 %51, 0
  br i1 %52, label %54, label %53

53:                                               ; preds = %50
  tail call void @out_string(ptr noundef nonnull %0, ptr noundef nonnull @.str.15) #13
  br label %64

54:                                               ; preds = %50, %47, %44, %41, %38, %35, %32, %29, %26, %.lr.ph
  %.sink = phi i16 [ 512, %.lr.ph ], [ 64, %26 ], [ 4, %29 ], [ 8, %32 ], [ 2, %35 ], [ 32, %38 ], [ 1024, %41 ], [ 2048, %44 ], [ 4096, %47 ], [ 8192, %50 ]
  %55 = or i16 %.04852, %.sink
  %indvars.iv.next = add nuw i64 %indvars.iv, 1
  %exitcond.not = icmp eq i64 %indvars.iv, %21
  br i1 %exitcond.not, label %.loopexit, label %.lr.ph, !llvm.loop !141

.loopexit:                                        ; preds = %54, %19
  %.2 = phi i16 [ 4, %19 ], [ %55, %54 ]
  %56 = getelementptr inbounds nuw i8, ptr %0, i64 8
  %57 = load i32, ptr %56, align 8, !tbaa !41
  %58 = tail call i32 @logger_add_watcher(ptr noundef nonnull %0, i32 noundef %57, i16 noundef zeroext %.2) #13
  switch i32 %58, label %64 [
    i32 0, label %59
    i32 2, label %60
    i32 1, label %61
  ]

59:                                               ; preds = %.loopexit
  tail call void @out_string(ptr noundef nonnull %0, ptr noundef nonnull @.str.164) #13
  br label %64

60:                                               ; preds = %.loopexit
  tail call void @out_string(ptr noundef nonnull %0, ptr noundef nonnull @.str.165) #13
  br label %64

61:                                               ; preds = %.loopexit
  tail call void @conn_set_state(ptr noundef nonnull %0, i32 noundef 11) #13
  %62 = getelementptr inbounds nuw i8, ptr %0, i64 48
  %63 = tail call i32 @event_del(ptr noundef nonnull %62) #13
  br label %64

64:                                               ; preds = %.loopexit, %59, %60, %61, %53, %18, %15
  ret void
}